Certificate:
    Data:
        Version: 3 (0x2)
        Serial Number: 0 (0x0)
        Signature Algorithm: sha256WithRSAEncryption
        Issuer: C=CN, ST=bj, L=bj, O=ustb, OU=jsj1807, CN=wzc/emailAddress=524339236@qq.com
        Validity
            Not Before: Dec 11 13:04:39 2020 GMT
            Not After : Dec 11 13:04:39 2021 GMT
        Subject: C=CN, ST=bj, O=ustb, OU=jsj1807, CN=wzc/emailAddress=524339236@qq.com
        Subject Public Key Info:
            Public Key Algorithm: rsaEncryption
                RSA Public-Key: (1024 bit)
                Modulus:
                    00:d5:7a:25:85:31:a9:30:65:3c:52:14:e2:d7:55:
                    f5:26:7a:19:79:a5:58:b2:a9:1b:47:02:db:c4:dc:
                    a2:00:62:d7:a8:2d:7b:18:2a:18:6c:47:3f:6c:f6:
                    85:d6:80:e0:ea:f5:05:15:fb:43:78:c5:cb:b1:01:
                    d9:84:08:76:65:b2:bf:1f:67:68:53:f4:f0:ef:f3:
                    8f:93:64:a1:85:67:42:61:97:41:ef:a3:b9:74:18:
                    b5:b1:f4:6a:9a:5b:8f:a5:f3:8f:d0:77:1a:a4:58:
                    99:2b:c0:5f:bd:f2:d4:b2:23:84:0d:b6:7c:0d:9e:
                    72:f5:ed:14:85:d6:87:bd:65
                Exponent: 65537 (0x10001)
        X509v3 extensions:
            X509v3 Basic Constraints: 
                CA:FALSE
            Netscape Comment: 
                OpenSSL Generated Certificate
            X509v3 Subject Key Identifier: 
                A1:D2:13:8A:2A:5F:53:65:DF:AA:D4:40:D9:E9:96:3B:78:F9:0A:F2
            X509v3 Authority Key Identifier: 
                keyid:03:C1:19:62:23:67:DC:C0:14:74:D5:CB:54:BF:5C:BF:A6:68:99:34

    Signature Algorithm: sha256WithRSAEncryption
         16:58:74:c6:06:24:b1:a3:b3:36:b6:6c:61:b5:b7:6e:1a:d7:
         23:a6:68:f5:b7:36:4f:6a:ce:a1:88:c6:b5:07:75:f4:52:29:
         3e:03:f8:dd:40:9d:7d:f3:34:18:3d:7a:df:6f:d9:10:85:03:
         f5:f2:86:df:19:73:f9:e8:1d:9d:e8:dc:06:be:2f:9f:9e:4b:
         d5:64:08:8b:e9:2c:b3:ce:d9:a2:94:59:98:45:e1:6e:dd:fa:
         28:b9:c5:15:71:d9:4b:82:40:74:77:e0:7e:e7:9b:b8:26:04:
         16:5c:79:31:71:04:4e:88:ac:0c:77:c5:4e:a9:18:b3:f9:00:
         20:2b:a4:b3:1a:28:67:03:5a:57:02:b9:d7:07:bb:bf:ab:c9:
         4e:11:0e:d5:fe:d4:de:7f:5c:1e:8a:bd:d5:47:e6:e6:69:27:
         ee:c2:b7:1b:b8:3f:2b:6c:97:ec:5d:fb:41:36:ba:f6:7f:ca:
         ba:41:31:18:1e:84:4e:e8:cc:fb:22:a6:0c:ea:e4:85:b6:7f:
         db:50:b0:be:6f:57:39:94:78:3a:a4:e4:f3:58:30:f9:1c:c0:
         b1:13:cd:15:b2:2c:60:3b:5c:c1:83:3c:65:d0:84:b0:67:44:
         0a:21:0c:42:96:85:22:d5:22:8f:da:45:64:73:eb:74:cf:01:
         47:5f:3a:aa
-----BEGIN CERTIFICATE-----
MIIDUzCCAjugAwIBAgIBADANBgkqhkiG9w0BAQsFADB3MQswCQYDVQQGEwJDTjEL
MAkGA1UECAwCYmoxCzAJBgNVBAcMAmJqMQ0wCwYDVQQKDAR1c3RiMRAwDgYDVQQL
DAdqc2oxODA3MQwwCgYDVQQDDAN3emMxHzAdBgkqhkiG9w0BCQEWEDUyNDMzOTIz
NkBxcS5jb20wHhcNMjAxMjExMTMwNDM5WhcNMjExMjExMTMwNDM5WjBqMQswCQYD
VQQGEwJDTjELMAkGA1UECAwCYmoxDTALBgNVBAoMBHVzdGIxEDAOBgNVBAsMB2pz
ajE4MDcxDDAKBgNVBAMMA3d6YzEfMB0GCSqGSIb3DQEJARYQNTI0MzM5MjM2QHFx
LmNvbTCBnzANBgkqhkiG9w0BAQEFAAOBjQAwgYkCgYEA1XolhTGpMGU8UhTi11X1
JnoZeaVYsqkbRwLbxNyiAGLXqC17GCoYbEc/bPaF1oDg6vUFFftDeMXLsQHZhAh2
ZbK/H2doU/Tw7/OPk2ShhWdCYZdB76O5dBi1sfRqmluPpfOP0HcapFiZK8BfvfLU
siOEDbZ8DZ5y9e0UhdaHvWUCAwEAAaN7MHkwCQYDVR0TBAIwADAsBglghkgBhvhC
AQ0EHxYdT3BlblNTTCBHZW5lcmF0ZWQgQ2VydGlmaWNhdGUwHQYDVR0OBBYEFKHS
E4oqX1Nl36rUQNnpljt4+QryMB8GA1UdIwQYMBaAFAPBGWIjZ9zAFHTVy1S/XL+m
aJk0MA0GCSqGSIb3DQEBCwUAA4IBAQAWWHTGBiSxo7M2tmxhtbduGtcjpmj1tzZP
as6hiMa1B3X0Uik+A/jdQJ198zQYPXrfb9kQhQP18obfGXP56B2d6NwGvi+fnkvV
ZAiL6SyzztmilFmYReFu3fooucUVcdlLgkB0d+B+55u4JgQWXHkxcQROiKwMd8VO
qRiz+QAgK6SzGihnA1pXArnXB7u/q8lOEQ7V/tTef1weir3VR+bmaSfuwrcbuD8r
bJfsXftBNrr2f8q6QTEYHoRO6Mz7IqYM6uSFtn/bULC+b1c5lHg6pOTzWDD5HMCx
E80VsixgO1zBgzxl0ISwZ0QKIQxCloUi1SKP2kVkc+t0zwFHXzqq
-----END CERTIFICATE-----
